; Function Attrs: mustprogress nounwind uwtable
define internal void @_ZN3gmx12_GLOBAL__N_113RootHelpTopicD0Ev(ptr noundef nonnull align 8 dereferenceable(80) %0) unnamed_addr #0 align 2 personality ptr @__gxx_personality_v0 {
  store ptr getelementptr inbounds inrange(-16, 64) ({ [10 x ptr] }, ptr @_ZTVN3gmx12_GLOBAL__N_113RootHelpTopicE, i64 0, i32 0, i64 2), ptr %0, align 8
  %2 = getelementptr inbounds i8, ptr %0, i64 56
  %3 = load ptr, ptr %2, align 8
  %4 = getelementptr inbounds i8, ptr %0, i64 64
  %5 = load ptr, ptr %4, align 8
  %.not4.i.i.i.i.i = icmp eq ptr %3, %5
  br i1 %.not4.i.i.i.i.i, label %_ZSt8_DestroyIPNSt7__cxx1112basic_stringIcSt11char_traitsIcESaIcEEES5_EvT_S7_RSaIT0_E.exit.i.i, label %.lr.ph.i.i.i.i.i

.lr.ph.i.i.i.i.i:                                 ; preds = %1, %.lr.ph.i.i.i.i.i
  %.05.i.i.i.i.i = phi ptr [ %6, %.lr.ph.i.i.i.i.i ], [ %3, %1 ]
  tail call void @_ZNSt7__cxx1112basic_stringIcSt11char_traitsIcESaIcEED1Ev(ptr noundef nonnull align 8 dereferenceable(32) %.05.i.i.i.i.i) #19
  %6 = getelementptr inbounds i8, ptr %.05.i.i.i.i.i, i64 32
  %.not.i.i.i.i.i = icmp eq ptr %6, %5
  br i1 %.not.i.i.i.i.i, label %_ZSt8_DestroyIPNSt7__cxx1112basic_stringIcSt11char_traitsIcESaIcEEES5_EvT_S7_RSaIT0_E.exitthread-pre-split.i.i, label %.lr.ph.i.i.i.i.i, !llvm.loop !11

_ZSt8_DestroyIPNSt7__cxx1112basic_stringIcSt11char_traitsIcESaIcEEES5_EvT_S7_RSaIT0_E.exitthread-pre-split.i.i: ; preds = %.lr.ph.i.i.i.i.i
  %.pr.i.i = load ptr, ptr %2, align 8
  br label %_ZSt8_DestroyIPNSt7__cxx1112basic_stringIcSt11char_traitsIcESaIcEEES5_EvT_S7_RSaIT0_E.exit.i.i

_ZSt8_DestroyIPNSt7__cxx1112basic_stringIcSt11char_traitsIcESaIcEEES5_EvT_S7_RSaIT0_E.exit.i.i: ; preds = %_ZSt8_DestroyIPNSt7__cxx1112basic_stringIcSt11char_traitsIcESaIcEEES5_EvT_S7_RSaIT0_E.exitthread-pre-split.i.i, %1
  %7 = phi ptr [ %.pr.i.i, %_ZSt8_DestroyIPNSt7__cxx1112basic_stringIcSt11char_traitsIcESaIcEEES5_EvT_S7_RSaIT0_E.exitthread-pre-split.i.i ], [ %3, %1 ]
  %.not.i.i.i.i = icmp eq ptr %7, null
  br i1 %.not.i.i.i.i, label %_ZN3gmx12_GLOBAL__N_113RootHelpTopicD2Ev.exit, label %8

8:                                                ; preds = %_ZSt8_DestroyIPNSt7__cxx1112basic_stringIcSt11char_traitsIcESaIcEEES5_EvT_S7_RSaIT0_E.exit.i.i
  tail call void @_ZdlPv(ptr noundef nonnull %7) #20
  br label %_ZN3gmx12_GLOBAL__N_113RootHelpTopicD2Ev.exit

_ZN3gmx12_GLOBAL__N_113RootHelpTopicD2Ev.exit:    ; preds = %_ZSt8_DestroyIPNSt7__cxx1112basic_stringIcSt11char_traitsIcESaIcEEES5_EvT_S7_RSaIT0_E.exit.i.i, %8
  %9 = getelementptr inbounds i8, ptr %0, i64 24
  tail call void @_ZNSt7__cxx1112basic_stringIcSt11char_traitsIcESaIcEED1Ev(ptr noundef nonnull align 8 dereferenceable(32) %9) #19
  tail call void @_ZN3gmx26AbstractCompositeHelpTopicD2Ev(ptr noundef nonnull align 8 dereferenceable(16) %0) #19
  tail call void @_ZdlPv(ptr noundef nonnull %0) #20
  ret void
}